target datalayout = "e-m:e-p270:32:32-p271:32:32-p272:64:64-i64:64-i128:128-f80:128-n8:16:32:64-S128"
target triple = "x86_64-pc-linux-gnu"

%"struct.llvm::Align" = type { i8 }
%"class.llvm::SmallVectorBase" = type { ptr, i32, i32 }
%"class.llvm::MachineFrameInfo" = type { %"struct.llvm::Align", i8, i8, %"class.std::vector.126", i32, i8, i8, i8, i8, i8, i64, i64, %"struct.llvm::Align", i8, i8, i32, i32, i64, i32, %"class.std::vector.131", i8, %"class.llvm::SmallVector.136", i64, %"struct.llvm::Align", i8, i8, i8, i8, i8, i8, ptr, ptr, i64 }
%"class.std::vector.126" = type { %"struct.std::_Vector_base.127" }
%"struct.std::_Vector_base.127" = type { %"struct.std::_Vector_base<llvm::MachineFrameInfo::StackObject, std::allocator<llvm::MachineFrameInfo::StackObject>>::_Vector_impl" }
%"struct.std::_Vector_base<llvm::MachineFrameInfo::StackObject, std::allocator<llvm::MachineFrameInfo::StackObject>>::_Vector_impl" = type { %"struct.std::_Vector_base<llvm::MachineFrameInfo::StackObject, std::allocator<llvm::MachineFrameInfo::StackObject>>::_Vector_impl_data" }
%"struct.std::_Vector_base<llvm::MachineFrameInfo::StackObject, std::allocator<llvm::MachineFrameInfo::StackObject>>::_Vector_impl_data" = type { ptr, ptr, ptr }
%"class.std::vector.131" = type { %"struct.std::_Vector_base.132" }
%"struct.std::_Vector_base.132" = type { %"struct.std::_Vector_base<llvm::CalleeSavedInfo, std::allocator<llvm::CalleeSavedInfo>>::_Vector_impl" }
%"struct.std::_Vector_base<llvm::CalleeSavedInfo, std::allocator<llvm::CalleeSavedInfo>>::_Vector_impl" = type { %"struct.std::_Vector_base<llvm::CalleeSavedInfo, std::allocator<llvm::CalleeSavedInfo>>::_Vector_impl_data" }
%"struct.std::_Vector_base<llvm::CalleeSavedInfo, std::allocator<llvm::CalleeSavedInfo>>::_Vector_impl_data" = type { ptr, ptr, ptr }
%"class.llvm::SmallVector.136" = type { %"class.llvm::SmallVectorImpl.137", %"struct.llvm::SmallVectorStorage.140" }
%"class.llvm::SmallVectorImpl.137" = type { %"class.llvm::SmallVectorTemplateBase.138" }
%"class.llvm::SmallVectorTemplateBase.138" = type { %"class.llvm::SmallVectorTemplateCommon.139" }
%"class.llvm::SmallVectorTemplateCommon.139" = type { %"class.llvm::SmallVectorBase" }
%"struct.llvm::SmallVectorStorage.140" = type { [512 x i8] }
%"struct.llvm::MachineFrameInfo::StackObject" = type <{ i64, i64, %"struct.llvm::Align", i8, i8, i8, i8, [3 x i8], ptr, i8, i8, i8, i8, i8, [3 x i8] }>
%class.anon = type { ptr, ptr }

; Function Attrs: mustprogress nounwind uwtable
define linkonce_odr hidden noundef ptr @_ZNK4llvm25SmallVectorTemplateCommonIivE10getFirstElEv(ptr noundef nonnull align 8 dereferenceable(16) %0) #0 comdat align 2 {
  %2 = alloca ptr, align 8
  store ptr %0, ptr %2, align 8
  %3 = load ptr, ptr %2, align 8
  %4 = getelementptr inbounds i8, ptr %3, i64 16
  ret ptr %4
}

; Function Attrs: mustprogress nounwind uwtable
define linkonce_odr hidden void @_ZN4llvm25SmallVectorTemplateCommonIivE8grow_podEmm(ptr noundef nonnull align 8 dereferenceable(16) %0, i64 noundef %1, i64 noundef %2) #0 comdat align 2 {
  %4 = alloca ptr, align 8
  %5 = alloca i64, align 8
  %6 = alloca i64, align 8
  store ptr %0, ptr %4, align 8
  store i64 %1, ptr %5, align 8
  store i64 %2, ptr %6, align 8
  %7 = load ptr, ptr %4, align 8
  %8 = call noundef ptr @_ZNK4llvm25SmallVectorTemplateCommonIivE10getFirstElEv(ptr noundef nonnull align 8 dereferenceable(16) %7)
  %9 = load i64, ptr %5, align 8
  %10 = load i64, ptr %6, align 8
  call void @_ZN4llvm15SmallVectorBaseIjE8grow_podEPvmm(ptr noundef nonnull align 8 dereferenceable(16) %7, ptr noundef %8, i64 noundef %9, i64 noundef %10)
  ret void
}

; Function Attrs: mustprogress nounwind uwtable
define linkonce_odr hidden void @_ZN4llvm23SmallVectorTemplateBaseIiLb1EE4growEm(ptr noundef nonnull align 8 dereferenceable(16) %0, i64 noundef %1) #0 comdat align 2 {
  %3 = alloca ptr, align 8
  %4 = alloca i64, align 8
  store ptr %0, ptr %3, align 8
  store i64 %1, ptr %4, align 8
  %5 = load ptr, ptr %3, align 8
  %6 = load i64, ptr %4, align 8
  call void @_ZN4llvm25SmallVectorTemplateCommonIivE8grow_podEmm(ptr noundef nonnull align 8 dereferenceable(16) %5, i64 noundef %6, i64 noundef 4)
  ret void
}

; Function Attrs: mustprogress nounwind uwtable
define linkonce_odr hidden noundef ptr @_ZN4llvm25SmallVectorTemplateCommonIivE5beginEv(ptr noundef nonnull align 8 dereferenceable(16) %0) #0 comdat align 2 {
  %2 = alloca ptr, align 8
  store ptr %0, ptr %2, align 8
  %3 = load ptr, ptr %2, align 8
  %4 = getelementptr inbounds nuw %"class.llvm::SmallVectorBase", ptr %3, i32 0, i32 0
  %5 = load ptr, ptr %4, align 8
  ret ptr %5
}

; Function Attrs: mustprogress nounwind uwtable
define linkonce_odr hidden noundef ptr @_ZN4llvm25SmallVectorTemplateCommonIivE32reserveForParamAndGetAddressImplINS_23SmallVectorTemplateBaseIiLb1EEEEEPKiPT_RS5_m(ptr noundef %0, ptr noundef nonnull align 4 dereferenceable(4) %1, i64 noundef %2) #0 comdat align 2 {
  %4 = alloca ptr, align 8
  %5 = alloca ptr, align 8
  %6 = alloca ptr, align 8
  %7 = alloca i64, align 8
  %8 = alloca i64, align 8
  %9 = alloca i8, align 1
  %10 = alloca i64, align 8
  store ptr %0, ptr %5, align 8
  store ptr %1, ptr %6, align 8
  store i64 %2, ptr %7, align 8
  %11 = load ptr, ptr %5, align 8
  %12 = call noundef i64 @_ZNK4llvm15SmallVectorBaseIjE4sizeEv(ptr noundef nonnull align 8 dereferenceable(16) %11)
  %13 = load i64, ptr %7, align 8
  %14 = add i64 %12, %13
  store i64 %14, ptr %8, align 8
  %15 = load i64, ptr %8, align 8
  %16 = load ptr, ptr %5, align 8
  %17 = call noundef i64 @_ZNK4llvm15SmallVectorBaseIjE8capacityEv(ptr noundef nonnull align 8 dereferenceable(16) %16)
  %18 = icmp ule i64 %15, %17
  br i1 %18, label %19, label %21

19:                                               ; preds = %3
  %20 = load ptr, ptr %6, align 8
  store ptr %20, ptr %4, align 8
  br label %35

21:                                               ; preds = %3
  store i8 0, ptr %9, align 1
  store i64 -1, ptr %10, align 8
  %22 = load ptr, ptr %5, align 8
  %23 = load i64, ptr %8, align 8
  call void @_ZN4llvm23SmallVectorTemplateBaseIiLb1EE4growEm(ptr noundef nonnull align 8 dereferenceable(16) %22, i64 noundef %23)
  %24 = load i8, ptr %9, align 1
  %25 = trunc i8 %24 to i1
  br i1 %25, label %26, label %31

26:                                               ; preds = %21
  %27 = load ptr, ptr %5, align 8
  %28 = call noundef ptr @_ZN4llvm25SmallVectorTemplateCommonIivE5beginEv(ptr noundef nonnull align 8 dereferenceable(16) %27)
  %29 = load i64, ptr %10, align 8
  %30 = getelementptr inbounds i32, ptr %28, i64 %29
  br label %33

31:                                               ; preds = %21
  %32 = load ptr, ptr %6, align 8
  br label %33

33:                                               ; preds = %31, %26
  %34 = phi ptr [ %30, %26 ], [ %32, %31 ]
  store ptr %34, ptr %4, align 8
  br label %35

35:                                               ; preds = %33, %19
  %36 = load ptr, ptr %4, align 8
  ret ptr %36
}

; Function Attrs: mustprogress nounwind uwtable
define linkonce_odr hidden noundef ptr @_ZN4llvm25SmallVectorTemplateCommonIivE3endEv(ptr noundef nonnull align 8 dereferenceable(16) %0) #0 comdat align 2 {
  %2 = alloca ptr, align 8
  store ptr %0, ptr %2, align 8
  %3 = load ptr, ptr %2, align 8
  %4 = call noundef ptr @_ZN4llvm25SmallVectorTemplateCommonIivE5beginEv(ptr noundef nonnull align 8 dereferenceable(16) %3)
  %5 = call noundef i64 @_ZNK4llvm15SmallVectorBaseIjE4sizeEv(ptr noundef nonnull align 8 dereferenceable(16) %3)
  %6 = getelementptr inbounds i32, ptr %4, i64 %5
  ret ptr %6
}

; Function Attrs: mustprogress nounwind uwtable
define linkonce_odr hidden noundef ptr @_ZN4llvm23SmallVectorTemplateBaseIiLb1EE28reserveForParamAndGetAddressERim(ptr noundef nonnull align 8 dereferenceable(16) %0, ptr noundef nonnull align 4 dereferenceable(4) %1, i64 noundef %2) #0 comdat align 2 {
  %4 = alloca ptr, align 8
  %5 = alloca ptr, align 8
  %6 = alloca i64, align 8
  store ptr %0, ptr %4, align 8
  store ptr %1, ptr %5, align 8
  store i64 %2, ptr %6, align 8
  %7 = load ptr, ptr %4, align 8
  %8 = load ptr, ptr %5, align 8
  %9 = load i64, ptr %6, align 8
  %10 = call noundef ptr @_ZN4llvm25SmallVectorTemplateCommonIivE32reserveForParamAndGetAddressImplINS_23SmallVectorTemplateBaseIiLb1EEEEEPKiPT_RS5_m(ptr noundef %7, ptr noundef nonnull align 4 dereferenceable(4) %8, i64 noundef %9)
  ret ptr %10
}

; Function Attrs: mustprogress nounwind uwtable
define linkonce_odr hidden noundef nonnull align 8 dereferenceable(37) ptr @_ZNKSt6vectorIN4llvm16MachineFrameInfo11StackObjectESaIS2_EEixEm(ptr noundef nonnull align 8 dereferenceable(24) %0, i64 noundef %1) #0 comdat align 2 {
  %3 = alloca ptr, align 8
  %4 = alloca i64, align 8
  store ptr %0, ptr %3, align 8
  store i64 %1, ptr %4, align 8
  %5 = load ptr, ptr %3, align 8
  %6 = getelementptr inbounds nuw %"struct.std::_Vector_base.127", ptr %5, i32 0, i32 0
  %7 = getelementptr inbounds nuw %"struct.std::_Vector_base<llvm::MachineFrameInfo::StackObject, std::allocator<llvm::MachineFrameInfo::StackObject>>::_Vector_impl_data", ptr %6, i32 0, i32 0
  %8 = load ptr, ptr %7, align 8
  %9 = load i64, ptr %4, align 8
  %10 = getelementptr inbounds %"struct.llvm::MachineFrameInfo::StackObject", ptr %8, i64 %9
  ret ptr %10
}

; Function Attrs: mustprogress nounwind uwtable
define linkonce_odr hidden void @_ZN4llvm23SmallVectorTemplateBaseIiLb1EE9push_backEi(ptr noundef nonnull align 8 dereferenceable(16) %0, i32 noundef %1) #0 comdat align 2 {
  %3 = alloca ptr, align 8
  %4 = alloca i32, align 4
  %5 = alloca ptr, align 8
  store ptr %0, ptr %3, align 8
  store i32 %1, ptr %4, align 4
  %6 = load ptr, ptr %3, align 8
  %7 = call noundef ptr @_ZN4llvm23SmallVectorTemplateBaseIiLb1EE28reserveForParamAndGetAddressERim(ptr noundef nonnull align 8 dereferenceable(16) %6, ptr noundef nonnull align 4 dereferenceable(4) %4, i64 noundef 1)
  store ptr %7, ptr %5, align 8
  %8 = call noundef ptr @_ZN4llvm25SmallVectorTemplateCommonIivE3endEv(ptr noundef nonnull align 8 dereferenceable(16) %6)
  %9 = load ptr, ptr %5, align 8
  call void @llvm.memcpy.p0.p0.i64(ptr align 1 %8, ptr align 4 %9, i64 4, i1 false)
  %10 = call noundef i64 @_ZNK4llvm15SmallVectorBaseIjE4sizeEv(ptr noundef nonnull align 8 dereferenceable(16) %6)
  %11 = add i64 %10, 1
  call void @_ZN4llvm15SmallVectorBaseIjE8set_sizeEm(ptr noundef nonnull align 8 dereferenceable(16) %6, i64 noundef %11)
  ret void
}

; Function Attrs: mustprogress nounwind uwtable
define linkonce_odr hidden noundef zeroext i1 @_ZNK4llvm16MachineFrameInfo17isDeadObjectIndexEi(ptr noundef nonnull align 8 dereferenceable(696) %0, i32 noundef %1) #0 comdat align 2 {
  %3 = alloca ptr, align 8
  %4 = alloca i32, align 4
  store ptr %0, ptr %3, align 8
  store i32 %1, ptr %4, align 4
  %5 = load ptr, ptr %3, align 8
  %6 = getelementptr inbounds nuw %"class.llvm::MachineFrameInfo", ptr %5, i32 0, i32 3
  %7 = load i32, ptr %4, align 4
  %8 = getelementptr inbounds nuw %"class.llvm::MachineFrameInfo", ptr %5, i32 0, i32 4
  %9 = load i32, ptr %8, align 8
  %10 = add i32 %7, %9
  %11 = zext i32 %10 to i64
  %12 = call noundef nonnull align 8 dereferenceable(37) ptr @_ZNKSt6vectorIN4llvm16MachineFrameInfo11StackObjectESaIS2_EEixEm(ptr noundef nonnull align 8 dereferenceable(24) %6, i64 noundef %11) #9
  %13 = getelementptr inbounds nuw %"struct.llvm::MachineFrameInfo::StackObject", ptr %12, i32 0, i32 1
  %14 = load i64, ptr %13, align 8
  %15 = icmp eq i64 %14, -1
  ret i1 %15
}

; Function Attrs: mustprogress nounwind uwtable
define linkonce_odr hidden noundef zeroext i8 @_ZNK4llvm16MachineFrameInfo10getStackIDEi(ptr noundef nonnull align 8 dereferenceable(696) %0, i32 noundef %1) #0 comdat align 2 {
  %3 = alloca ptr, align 8
  %4 = alloca i32, align 4
  store ptr %0, ptr %3, align 8
  store i32 %1, ptr %4, align 4
  %5 = load ptr, ptr %3, align 8
  %6 = getelementptr inbounds nuw %"class.llvm::MachineFrameInfo", ptr %5, i32 0, i32 3
  %7 = load i32, ptr %4, align 4
  %8 = getelementptr inbounds nuw %"class.llvm::MachineFrameInfo", ptr %5, i32 0, i32 4
  %9 = load i32, ptr %8, align 8
  %10 = add i32 %7, %9
  %11 = zext i32 %10 to i64
  %12 = call noundef nonnull align 8 dereferenceable(37) ptr @_ZNKSt6vectorIN4llvm16MachineFrameInfo11StackObjectESaIS2_EEixEm(ptr noundef nonnull align 8 dereferenceable(24) %6, i64 noundef %11) #9
  %13 = getelementptr inbounds nuw %"struct.llvm::MachineFrameInfo::StackObject", ptr %12, i32 0, i32 6
  %14 = load i8, ptr %13, align 4
  ret i8 %14
}

; Function Attrs: mustprogress nounwind uwtable
define internal void @"_ZZNK4llvm18RISCVFrameLowering27assignRVVStackObjectOffsetsERNS_15MachineFunctionEENK3$_0clEii"(ptr noundef nonnull align 8 dereferenceable(16) %0, i32 noundef %1, i32 noundef %2) #0 align 2 {
  %4 = alloca ptr, align 8
  %5 = alloca i32, align 4
  %6 = alloca i32, align 4
  %7 = alloca i32, align 4
  %8 = alloca i32, align 4
  %9 = alloca i32, align 4
  store ptr %0, ptr %4, align 8
  store i32 %1, ptr %5, align 4
  store i32 %2, ptr %6, align 4
  %10 = load ptr, ptr %4, align 8
  %11 = load i32, ptr %5, align 4
  store i32 %11, ptr %7, align 4
  %12 = load i32, ptr %6, align 4
  store i32 %12, ptr %8, align 4
  br label %13

13:                                               ; preds = %36, %3
  %14 = load i32, ptr %7, align 4
  %15 = load i32, ptr %8, align 4
  %16 = icmp ne i32 %14, %15
  br i1 %16, label %17, label %39

17:                                               ; preds = %13
  %18 = getelementptr inbounds nuw %class.anon, ptr %10, i32 0, i32 0
  %19 = load ptr, ptr %18, align 8
  %20 = load i32, ptr %7, align 4
  %21 = call noundef zeroext i8 @_ZNK4llvm16MachineFrameInfo10getStackIDEi(ptr noundef nonnull align 8 dereferenceable(696) %19, i32 noundef %20)
  %22 = zext i8 %21 to i32
  store i32 %22, ptr %9, align 4
  %23 = load i32, ptr %9, align 4
  %24 = icmp ne i32 %23, 2
  br i1 %24, label %25, label %26

25:                                               ; preds = %17
  br label %36

26:                                               ; preds = %17
  %27 = getelementptr inbounds nuw %class.anon, ptr %10, i32 0, i32 0
  %28 = load ptr, ptr %27, align 8
  %29 = load i32, ptr %7, align 4
  %30 = call noundef zeroext i1 @_ZNK4llvm16MachineFrameInfo17isDeadObjectIndexEi(ptr noundef nonnull align 8 dereferenceable(696) %28, i32 noundef %29)
  br i1 %30, label %31, label %32

31:                                               ; preds = %26
  br label %36

32:                                               ; preds = %26
  %33 = getelementptr inbounds nuw %class.anon, ptr %10, i32 0, i32 1
  %34 = load ptr, ptr %33, align 8
  %35 = load i32, ptr %7, align 4
  call void @_ZN4llvm23SmallVectorTemplateBaseIiLb1EE9push_backEi(ptr noundef nonnull align 8 dereferenceable(16) %34, i32 noundef %35)
  br label %36

36:                                               ; preds = %32, %31, %25
  %37 = load i32, ptr %7, align 4
  %38 = add nsw i32 %37, 1
  store i32 %38, ptr %7, align 4
  br label %13, !llvm.loop !8

39:                                               ; preds = %13
  ret void
}