; Function Attrs: mustprogress nounwind uwtable
define internal fastcc void @"_ZZNK4llvm18RISCVFrameLowering27assignRVVStackObjectOffsetsERNS_15MachineFunctionEENK3$_0clEii"(ptr nocapture noundef nonnull readonly align 8 dereferenceable(16) %0, i32 noundef %1, i32 noundef %2) unnamed_addr #1 align 2 {
  %.not10 = icmp eq i32 %1, %2
  br i1 %.not10, label %._crit_edge, label %.lr.ph

.lr.ph:                                           ; preds = %3
  %4 = getelementptr inbounds nuw i8, ptr %0, i64 8
  br label %5

5:                                                ; preds = %.lr.ph, %31
  %.011 = phi i32 [ %1, %.lr.ph ], [ %32, %31 ]
  %6 = load ptr, ptr %0, align 8
  %7 = getelementptr inbounds nuw i8, ptr %6, i64 8
  %8 = getelementptr inbounds nuw i8, ptr %6, i64 32
  %9 = load i32, ptr %8, align 8
  %10 = add i32 %9, %.011
  %11 = zext i32 %10 to i64
  %12 = load ptr, ptr %7, align 8
  %13 = getelementptr inbounds %"struct.llvm::MachineFrameInfo::StackObject", ptr %12, i64 %11, i32 6
  %14 = load i8, ptr %13, align 4
  %.not9 = icmp eq i8 %14, 2
  br i1 %.not9, label %15, label %31

15:                                               ; preds = %5
  %16 = getelementptr inbounds %"struct.llvm::MachineFrameInfo::StackObject", ptr %12, i64 %11, i32 1
  %17 = load i64, ptr %16, align 8
  %18 = icmp eq i64 %17, -1
  br i1 %18, label %31, label %19

19:                                               ; preds = %15
  %20 = load ptr, ptr %4, align 8
  %21 = tail call noundef i64 @_ZNK4llvm15SmallVectorBaseIjE4sizeEv(ptr noundef nonnull align 8 dereferenceable(16) %20) #17
  %22 = add i64 %21, 1
  %23 = tail call noundef i64 @_ZNK4llvm15SmallVectorBaseIjE8capacityEv(ptr noundef nonnull align 8 dereferenceable(16) %20) #17
  %.not.i.i.i = icmp ugt i64 %22, %23
  br i1 %.not.i.i.i, label %24, label %_ZN4llvm23SmallVectorTemplateBaseIiLb1EE9push_backEi.exit

24:                                               ; preds = %19
  %25 = getelementptr inbounds i8, ptr %20, i64 16
  tail call void @_ZN4llvm15SmallVectorBaseIjE8grow_podEPvmm(ptr noundef nonnull align 8 dereferenceable(16) %20, ptr noundef nonnull %25, i64 noundef %22, i64 noundef 4) #17
  br label %_ZN4llvm23SmallVectorTemplateBaseIiLb1EE9push_backEi.exit

_ZN4llvm23SmallVectorTemplateBaseIiLb1EE9push_backEi.exit: ; preds = %19, %24
  %26 = load ptr, ptr %20, align 8
  %27 = tail call noundef i64 @_ZNK4llvm15SmallVectorBaseIjE4sizeEv(ptr noundef nonnull align 8 dereferenceable(16) %20) #17
  %28 = getelementptr inbounds i32, ptr %26, i64 %27
  store i32 %.011, ptr %28, align 1
  %29 = tail call noundef i64 @_ZNK4llvm15SmallVectorBaseIjE4sizeEv(ptr noundef nonnull align 8 dereferenceable(16) %20) #17
  %30 = add i64 %29, 1
  tail call void @_ZN4llvm15SmallVectorBaseIjE8set_sizeEm(ptr noundef nonnull align 8 dereferenceable(16) %20, i64 noundef %30) #17
  br label %31

31:                                               ; preds = %15, %5, %_ZN4llvm23SmallVectorTemplateBaseIiLb1EE9push_backEi.exit
  %32 = add nsw i32 %.011, 1
  %.not = icmp eq i32 %32, %2
  br i1 %.not, label %._crit_edge, label %5, !llvm.loop !136

._crit_edge:                                      ; preds = %31, %3
  ret void
}